target datalayout = "e-m:e-p270:32:32-p271:32:32-p272:64:64-i64:64-i128:128-f80:128-n8:16:32:64-S128"
target triple = "x86_64-pc-linux-gnu"

@ff_dca_quant_index_group_size = external constant [10 x i8], align 1
@bitalloc_table = internal global [1988 x [2 x i16]] zeroinitializer, align 16
@ff_dca_vlc_src_tables = external constant [0 x [2 x i8]], align 1
@ff_dca_bitalloc_sizes = external constant [10 x i8], align 1
@ff_dca_bitalloc_offsets = external constant [10 x i8], align 1
@bitalloc_tables = internal global [10 x [8 x ptr]] zeroinitializer, align 16
@bitalloc_12_table = internal global [5 x [13 x [2 x i16]]] zeroinitializer, align 16

; Function Attrs: cold nounwind optsize uwtable
define internal void @create_enc_table(ptr noundef %0, i32 noundef %1, ptr noundef %2) #0 {
  %4 = alloca ptr, align 8
  %5 = alloca i32, align 4
  %6 = alloca ptr, align 8
  %7 = alloca ptr, align 8
  %8 = alloca i16, align 2
  %9 = alloca i32, align 4
  %10 = alloca i32, align 4
  store ptr %0, ptr %4, align 8, !tbaa !96
  store i32 %1, ptr %5, align 4, !tbaa !32
  store ptr %2, ptr %6, align 8, !tbaa !100
  call void @llvm.lifetime.start.p0(i64 8, ptr %7) #12
  %11 = load ptr, ptr %6, align 8, !tbaa !100
  %12 = load ptr, ptr %11, align 8, !tbaa !86
  store ptr %12, ptr %7, align 8, !tbaa !86
  call void @llvm.lifetime.start.p0(i64 2, ptr %8) #12
  store i16 0, ptr %8, align 2, !tbaa !94
  call void @llvm.lifetime.start.p0(i64 4, ptr %9) #12
  store i32 0, ptr %9, align 4, !tbaa !32
  br label %13

13:                                               ; preds = %68, %3
  %14 = load i32, ptr %9, align 4, !tbaa !32
  %15 = load i32, ptr %5, align 4, !tbaa !32
  %16 = icmp ult i32 %14, %15
  br i1 %16, label %18, label %17

17:                                               ; preds = %13
  call void @llvm.lifetime.end.p0(i64 4, ptr %9) #12
  br label %71

18:                                               ; preds = %13
  call void @llvm.lifetime.start.p0(i64 4, ptr %10) #12
  %19 = load ptr, ptr %7, align 8, !tbaa !86
  %20 = load i32, ptr %9, align 4, !tbaa !32
  %21 = zext i32 %20 to i64
  %22 = getelementptr inbounds nuw [2 x i8], ptr %19, i64 %21
  %23 = getelementptr inbounds [2 x i8], ptr %22, i64 0, i64 0
  %24 = load i8, ptr %23, align 1, !tbaa !33
  %25 = zext i8 %24 to i32
  store i32 %25, ptr %10, align 4, !tbaa !32
  %26 = load i16, ptr %8, align 2, !tbaa !94
  %27 = zext i16 %26 to i32
  %28 = load ptr, ptr %7, align 8, !tbaa !86
  %29 = load i32, ptr %9, align 4, !tbaa !32
  %30 = zext i32 %29 to i64
  %31 = getelementptr inbounds nuw [2 x i8], ptr %28, i64 %30
  %32 = getelementptr inbounds [2 x i8], ptr %31, i64 0, i64 1
  %33 = load i8, ptr %32, align 1, !tbaa !33
  %34 = zext i8 %33 to i32
  %35 = sub nsw i32 16, %34
  %36 = ashr i32 %27, %35
  %37 = trunc i32 %36 to i16
  %38 = load ptr, ptr %4, align 8, !tbaa !96
  %39 = load i32, ptr %10, align 4, !tbaa !32
  %40 = zext i32 %39 to i64
  %41 = getelementptr inbounds nuw [2 x i16], ptr %38, i64 %40
  %42 = getelementptr inbounds [2 x i16], ptr %41, i64 0, i64 0
  store i16 %37, ptr %42, align 2, !tbaa !94
  %43 = load ptr, ptr %7, align 8, !tbaa !86
  %44 = load i32, ptr %9, align 4, !tbaa !32
  %45 = zext i32 %44 to i64
  %46 = getelementptr inbounds nuw [2 x i8], ptr %43, i64 %45
  %47 = getelementptr inbounds [2 x i8], ptr %46, i64 0, i64 1
  %48 = load i8, ptr %47, align 1, !tbaa !33
  %49 = zext i8 %48 to i16
  %50 = load ptr, ptr %4, align 8, !tbaa !96
  %51 = load i32, ptr %10, align 4, !tbaa !32
  %52 = zext i32 %51 to i64
  %53 = getelementptr inbounds nuw [2 x i16], ptr %50, i64 %52
  %54 = getelementptr inbounds [2 x i16], ptr %53, i64 0, i64 1
  store i16 %49, ptr %54, align 2, !tbaa !94
  %55 = load ptr, ptr %7, align 8, !tbaa !86
  %56 = load i32, ptr %9, align 4, !tbaa !32
  %57 = zext i32 %56 to i64
  %58 = getelementptr inbounds nuw [2 x i8], ptr %55, i64 %57
  %59 = getelementptr inbounds [2 x i8], ptr %58, i64 0, i64 1
  %60 = load i8, ptr %59, align 1, !tbaa !33
  %61 = zext i8 %60 to i32
  %62 = sub nsw i32 16, %61
  %63 = shl i32 1, %62
  %64 = load i16, ptr %8, align 2, !tbaa !94
  %65 = zext i16 %64 to i32
  %66 = add nsw i32 %65, %63
  %67 = trunc i32 %66 to i16
  store i16 %67, ptr %8, align 2, !tbaa !94
  call void @llvm.lifetime.end.p0(i64 4, ptr %10) #12
  br label %68

68:                                               ; preds = %18
  %69 = load i32, ptr %9, align 4, !tbaa !32
  %70 = add i32 %69, 1
  store i32 %70, ptr %9, align 4, !tbaa !32
  br label %13, !llvm.loop !102

71:                                               ; preds = %17
  %72 = load i32, ptr %5, align 4, !tbaa !32
  %73 = load ptr, ptr %6, align 8, !tbaa !100
  %74 = load ptr, ptr %73, align 8, !tbaa !86
  %75 = zext i32 %72 to i64
  %76 = getelementptr inbounds nuw [2 x i8], ptr %74, i64 %75
  store ptr %76, ptr %73, align 8, !tbaa !86
  call void @llvm.lifetime.end.p0(i64 2, ptr %8) #12
  call void @llvm.lifetime.end.p0(i64 8, ptr %7) #12
  ret void
}

; Function Attrs: cold nounwind optsize uwtable
define internal void @dcaenc_init_static_tables() #0 {
  %1 = alloca ptr, align 8
  %2 = alloca ptr, align 8
  %3 = alloca i32, align 4
  %4 = alloca i32, align 4
  %5 = alloca i32, align 4
  %6 = alloca i32, align 4
  call void @llvm.lifetime.start.p0(i64 8, ptr %1) #12
  store ptr @bitalloc_table, ptr %1, align 8, !tbaa !96
  call void @llvm.lifetime.start.p0(i64 8, ptr %2) #12
  store ptr @ff_dca_vlc_src_tables, ptr %2, align 8, !tbaa !86
  call void @llvm.lifetime.start.p0(i64 4, ptr %3) #12
  store i32 0, ptr %3, align 4, !tbaa !32
  br label %7

7:                                                ; preds = %55, %0
  %8 = load i32, ptr %3, align 4, !tbaa !32
  %9 = icmp ult i32 %8, 10
  br i1 %9, label %11, label %10

10:                                               ; preds = %7
  store i32 2, ptr %4, align 4
  call void @llvm.lifetime.end.p0(i64 4, ptr %3) #12
  br label %58

11:                                               ; preds = %7
  call void @llvm.lifetime.start.p0(i64 4, ptr %5) #12
  store i32 0, ptr %5, align 4, !tbaa !32
  br label %12

12:                                               ; preds = %51, %11
  %13 = load i32, ptr %5, align 4, !tbaa !32
  %14 = load i32, ptr %3, align 4, !tbaa !32
  %15 = zext i32 %14 to i64
  %16 = getelementptr inbounds nuw [10 x i8], ptr @ff_dca_quant_index_group_size, i64 0, i64 %15
  %17 = load i8, ptr %16, align 1, !tbaa !33
  %18 = zext i8 %17 to i32
  %19 = icmp ult i32 %13, %18
  br i1 %19, label %21, label %20

20:                                               ; preds = %12
  store i32 5, ptr %4, align 4
  call void @llvm.lifetime.end.p0(i64 4, ptr %5) #12
  br label %54

21:                                               ; preds = %12
  %22 = load ptr, ptr %1, align 8, !tbaa !96
  %23 = load i32, ptr %3, align 4, !tbaa !32
  %24 = zext i32 %23 to i64
  %25 = getelementptr inbounds nuw [10 x i8], ptr @ff_dca_bitalloc_sizes, i64 0, i64 %24
  %26 = load i8, ptr %25, align 1, !tbaa !33
  %27 = zext i8 %26 to i32
  call void @create_enc_table(ptr noundef %22, i32 noundef %27, ptr noundef %2) #13
  %28 = load ptr, ptr %1, align 8, !tbaa !96
  %29 = load i32, ptr %3, align 4, !tbaa !32
  %30 = zext i32 %29 to i64
  %31 = getelementptr inbounds nuw [10 x i8], ptr @ff_dca_bitalloc_offsets, i64 0, i64 %30
  %32 = load i8, ptr %31, align 1, !tbaa !33
  %33 = sext i8 %32 to i32
  %34 = sext i32 %33 to i64
  %35 = sub i64 0, %34
  %36 = getelementptr inbounds [2 x i16], ptr %28, i64 %35
  %37 = load i32, ptr %3, align 4, !tbaa !32
  %38 = zext i32 %37 to i64
  %39 = getelementptr inbounds nuw [10 x [8 x ptr]], ptr @bitalloc_tables, i64 0, i64 %38
  %40 = load i32, ptr %5, align 4, !tbaa !32
  %41 = zext i32 %40 to i64
  %42 = getelementptr inbounds nuw [8 x ptr], ptr %39, i64 0, i64 %41
  store ptr %36, ptr %42, align 8, !tbaa !96
  %43 = load i32, ptr %3, align 4, !tbaa !32
  %44 = zext i32 %43 to i64
  %45 = getelementptr inbounds nuw [10 x i8], ptr @ff_dca_bitalloc_sizes, i64 0, i64 %44
  %46 = load i8, ptr %45, align 1, !tbaa !33
  %47 = zext i8 %46 to i32
  %48 = load ptr, ptr %1, align 8, !tbaa !96
  %49 = sext i32 %47 to i64
  %50 = getelementptr inbounds [2 x i16], ptr %48, i64 %49
  store ptr %50, ptr %1, align 8, !tbaa !96
  br label %51

51:                                               ; preds = %21
  %52 = load i32, ptr %5, align 4, !tbaa !32
  %53 = add i32 %52, 1
  store i32 %53, ptr %5, align 4, !tbaa !32
  br label %12, !llvm.loop !97

54:                                               ; preds = %20
  br label %55

55:                                               ; preds = %54
  %56 = load i32, ptr %3, align 4, !tbaa !32
  %57 = add i32 %56, 1
  store i32 %57, ptr %3, align 4, !tbaa !32
  br label %7, !llvm.loop !98

58:                                               ; preds = %10
  call void @llvm.lifetime.start.p0(i64 4, ptr %6) #12
  store i32 0, ptr %6, align 4, !tbaa !32
  br label %59

59:                                               ; preds = %68, %58
  %60 = load i32, ptr %6, align 4, !tbaa !32
  %61 = icmp ult i32 %60, 5
  br i1 %61, label %63, label %62

62:                                               ; preds = %59
  store i32 8, ptr %4, align 4
  call void @llvm.lifetime.end.p0(i64 4, ptr %6) #12
  br label %71

63:                                               ; preds = %59
  %64 = load i32, ptr %6, align 4, !tbaa !32
  %65 = zext i32 %64 to i64
  %66 = getelementptr inbounds nuw [5 x [13 x [2 x i16]]], ptr @bitalloc_12_table, i64 0, i64 %65
  %67 = getelementptr inbounds [13 x [2 x i16]], ptr %66, i64 0, i64 1
  call void @create_enc_table(ptr noundef %67, i32 noundef 12, ptr noundef %2) #13
  br label %68

68:                                               ; preds = %63
  %69 = load i32, ptr %6, align 4, !tbaa !32
  %70 = add i32 %69, 1
  store i32 %70, ptr %6, align 4, !tbaa !32
  br label %59, !llvm.loop !99

71:                                               ; preds = %62
  call void @llvm.lifetime.end.p0(i64 8, ptr %2) #12
  call void @llvm.lifetime.end.p0(i64 8, ptr %1) #12
  ret void
}