; Function Attrs: cold nofree norecurse nosync nounwind optsize memory(readwrite, argmem: none, inaccessiblemem: none) uwtable
define internal void @dcaenc_init_static_tables() #8 {
  br label %.preheader29

.preheader29:                                     ; preds = %0, %._crit_edge
  %indvars.iv41 = phi i64 [ 0, %0 ], [ %indvars.iv.next42, %._crit_edge ]
  %.01735 = phi ptr [ @bitalloc_table, %0 ], [ %.1.lcssa, %._crit_edge ]
  %.02734 = phi ptr [ @ff_dca_vlc_src_tables, %0 ], [ %.128.lcssa, %._crit_edge ]
  %1 = getelementptr inbounds nuw [10 x i8], ptr @ff_dca_quant_index_group_size, i64 0, i64 %indvars.iv41
  %2 = load i8, ptr %1, align 1, !tbaa !50
  %.not = icmp eq i8 %2, 0
  br i1 %.not, label %._crit_edge, label %.lr.ph

.lr.ph:                                           ; preds = %.preheader29
  %3 = getelementptr inbounds nuw [10 x i8], ptr @ff_dca_bitalloc_sizes, i64 0, i64 %indvars.iv41
  %4 = load i8, ptr %3, align 1, !tbaa !50
  %.not.i = icmp eq i8 %4, 0
  %wide.trip.count.i = zext i8 %4 to i64
  %5 = getelementptr inbounds nuw [10 x i8], ptr @ff_dca_bitalloc_offsets, i64 0, i64 %indvars.iv41
  %6 = load i8, ptr %5, align 1, !tbaa !50
  %7 = sext i8 %6 to i64
  %8 = sub nsw i64 0, %7
  %wide.trip.count = zext i8 %2 to i64
  br label %9

._crit_edge:                                      ; preds = %create_enc_table.exit, %.preheader29
  %.128.lcssa = phi ptr [ %.02734, %.preheader29 ], [ %25, %create_enc_table.exit ]
  %.1.lcssa = phi ptr [ %.01735, %.preheader29 ], [ %28, %create_enc_table.exit ]
  %indvars.iv.next42 = add nuw nsw i64 %indvars.iv41, 1
  %exitcond44.not = icmp eq i64 %indvars.iv.next42, 10
  br i1 %exitcond44.not, label %.preheader, label %.preheader29, !llvm.loop !169

9:                                                ; preds = %.lr.ph, %create_enc_table.exit
  %indvars.iv = phi i64 [ 0, %.lr.ph ], [ %indvars.iv.next, %create_enc_table.exit ]
  %.131 = phi ptr [ %.01735, %.lr.ph ], [ %28, %create_enc_table.exit ]
  %.12830 = phi ptr [ %.02734, %.lr.ph ], [ %25, %create_enc_table.exit ]
  br i1 %.not.i, label %create_enc_table.exit, label %.lr.ph.i

.lr.ph.i:                                         ; preds = %9, %.lr.ph.i
  %indvars.iv.i = phi i64 [ %indvars.iv.next.i, %.lr.ph.i ], [ 0, %9 ]
  %.022.i = phi i32 [ %24, %.lr.ph.i ], [ 0, %9 ]
  %10 = getelementptr inbounds nuw [2 x i8], ptr %.12830, i64 %indvars.iv.i
  %11 = load i8, ptr %10, align 1, !tbaa !50
  %12 = and i32 %.022.i, 65535
  %13 = getelementptr inbounds nuw i8, ptr %10, i64 1
  %14 = load i8, ptr %13, align 1, !tbaa !50
  %15 = zext i8 %14 to i32
  %16 = sub nsw i32 16, %15
  %17 = lshr i32 %12, %16
  %18 = trunc nuw i32 %17 to i16
  %19 = zext i8 %11 to i64
  %20 = getelementptr inbounds nuw [2 x i16], ptr %.131, i64 %19
  store i16 %18, ptr %20, align 2, !tbaa !67
  %21 = zext i8 %14 to i16
  %22 = getelementptr inbounds nuw i8, ptr %20, i64 2
  store i16 %21, ptr %22, align 2, !tbaa !67
  %23 = shl nuw nsw i32 1, %16
  %24 = add nuw nsw i32 %23, %12
  %indvars.iv.next.i = add nuw nsw i64 %indvars.iv.i, 1
  %exitcond.not.i = icmp eq i64 %indvars.iv.next.i, %wide.trip.count.i
  br i1 %exitcond.not.i, label %create_enc_table.exit, label %.lr.ph.i, !llvm.loop !170

create_enc_table.exit:                            ; preds = %.lr.ph.i, %9
  %25 = getelementptr inbounds nuw [2 x i8], ptr %.12830, i64 %wide.trip.count.i
  %26 = getelementptr inbounds [2 x i16], ptr %.131, i64 %8
  %27 = getelementptr inbounds nuw [10 x [8 x ptr]], ptr @bitalloc_tables, i64 0, i64 %indvars.iv41, i64 %indvars.iv
  store ptr %26, ptr %27, align 8, !tbaa !160
  %28 = getelementptr inbounds nuw [2 x i16], ptr %.131, i64 %wide.trip.count.i
  %indvars.iv.next = add nuw nsw i64 %indvars.iv, 1
  %exitcond.not = icmp eq i64 %indvars.iv.next, %wide.trip.count
  br i1 %exitcond.not, label %._crit_edge, label %9, !llvm.loop !171

29:                                               ; preds = %create_enc_table.exit25
  ret void

.preheader:                                       ; preds = %._crit_edge, %create_enc_table.exit25
  %indvars.iv45 = phi i64 [ %indvars.iv.next46, %create_enc_table.exit25 ], [ 0, %._crit_edge ]
  %.237 = phi ptr [ %46, %create_enc_table.exit25 ], [ %.128.lcssa, %._crit_edge ]
  %30 = getelementptr inbounds nuw [5 x [13 x [2 x i16]]], ptr @bitalloc_12_table, i64 0, i64 %indvars.iv45, i64 1
  br label %.lr.ph.i19

.lr.ph.i19:                                       ; preds = %.lr.ph.i19, %.preheader
  %indvars.iv.i20 = phi i64 [ 0, %.preheader ], [ %indvars.iv.next.i22, %.lr.ph.i19 ]
  %.022.i21 = phi i32 [ 0, %.preheader ], [ %45, %.lr.ph.i19 ]
  %31 = getelementptr inbounds nuw [2 x i8], ptr %.237, i64 %indvars.iv.i20
  %32 = load i8, ptr %31, align 1, !tbaa !50
  %33 = and i32 %.022.i21, 65535
  %34 = getelementptr inbounds nuw i8, ptr %31, i64 1
  %35 = load i8, ptr %34, align 1, !tbaa !50
  %36 = zext i8 %35 to i32
  %37 = sub nsw i32 16, %36
  %38 = lshr i32 %33, %37
  %39 = trunc nuw i32 %38 to i16
  %40 = zext i8 %32 to i64
  %41 = getelementptr inbounds nuw [2 x i16], ptr %30, i64 %40
  store i16 %39, ptr %41, align 4, !tbaa !67
  %42 = zext i8 %35 to i16
  %43 = getelementptr inbounds nuw i8, ptr %41, i64 2
  store i16 %42, ptr %43, align 2, !tbaa !67
  %44 = shl nuw nsw i32 1, %37
  %45 = add nuw nsw i32 %44, %33
  %indvars.iv.next.i22 = add nuw nsw i64 %indvars.iv.i20, 1
  %exitcond.not.i23 = icmp eq i64 %indvars.iv.next.i22, 12
  br i1 %exitcond.not.i23, label %create_enc_table.exit25, label %.lr.ph.i19, !llvm.loop !170

create_enc_table.exit25:                          ; preds = %.lr.ph.i19
  %46 = getelementptr inbounds nuw i8, ptr %.237, i64 24
  %indvars.iv.next46 = add nuw nsw i64 %indvars.iv45, 1
  %exitcond48.not = icmp eq i64 %indvars.iv.next46, 5
  br i1 %exitcond48.not, label %29, label %.preheader, !llvm.loop !172
}